; Function Attrs: mustprogress uwtable
define noundef signext i16 @_ZNK6icu_7519TransliterationRule13getIndexValueEv(ptr noundef nonnull align 8 dereferenceable(136) %this) local_unnamed_addr #1 align 2 {
entry:
  %anteContextLength = getelementptr inbounds i8, ptr %this, i64 116
  %0 = load i32, ptr %anteContextLength, align 4
  %fUnion.i.i = getelementptr inbounds i8, ptr %this, i64 48
  %1 = load i16, ptr %fUnion.i.i, align 8
  %cmp.i.i = icmp slt i16 %1, 0
  %2 = ashr i16 %1, 5
  %shr.i.i = sext i16 %2 to i32
  %fLength.i = getelementptr inbounds i8, ptr %this, i64 52
  %3 = load i32, ptr %fLength.i, align 4
  %cond.i = select i1 %cmp.i.i, i32 %3, i32 %shr.i.i
  %cmp = icmp eq i32 %0, %cond.i
  br i1 %cmp, label %return, label %if.end

if.end:                                           ; preds = %entry
  %pattern = getelementptr inbounds i8, ptr %this, i64 40
  %call4 = tail call noundef i32 @_ZNK6icu_7513UnicodeString8char32AtEi(ptr noundef nonnull align 8 dereferenceable(64) %pattern, i32 noundef %0)
  %data = getelementptr inbounds i8, ptr %this, i64 128
  %4 = load ptr, ptr %data, align 8
  %call5 = tail call noundef ptr @_ZNK6icu_7523TransliterationRuleData13lookupMatcherEi(ptr noundef nonnull align 8 dereferenceable(1168) %4, i32 noundef %call4)
  %cmp6 = icmp eq ptr %call5, null
  %5 = trunc i32 %call4 to i16
  %6 = and i16 %5, 255
  %conv = select i1 %cmp6, i16 %6, i16 -1
  br label %return

return:                                           ; preds = %entry, %if.end
  %retval.0 = phi i16 [ %conv, %if.end ], [ -1, %entry ]
  ret i16 %retval.0
}